target datalayout = "e-m:e-p270:32:32-p271:32:32-p272:64:64-i64:64-i128:128-f80:128-n8:16:32:64-S128"
target triple = "x86_64-pc-linux-gnu"

%struct.HYuvEncContext = type { ptr, ptr, %struct.PutBitContext, i32, i32, i32, i32, i32, i32, i32, i32, i32, i32, i32, i32, i32, i32, i32, i32, %union.anon.2, [4 x [16384 x i64]], [4 x [16384 x i8]], [4 x [16384 x i32]], %struct.BswapDSPContext, %struct.HuffYUVEncDSPContext, %struct.LLVidEncDSPContext, i32 }
%struct.PutBitContext = type { i32, i32, ptr, ptr, ptr }
%union.anon.2 = type { [3 x ptr] }
%struct.BswapDSPContext = type { ptr, ptr }
%struct.HuffYUVEncDSPContext = type { ptr, ptr }
%struct.LLVidEncDSPContext = type { ptr, ptr, ptr }

@.str.22 = private unnamed_addr constant [30 x i8] c"Assertion %s failed at %s:%d\0A\00", align 1
@.str.23 = private unnamed_addr constant [47 x i8] c"val < 32 && val >0 && repeat < 256 && repeat>0\00", align 1
@.str.24 = private unnamed_addr constant [24 x i8] c"libavcodec/huffyuvenc.c\00", align 1

; Function Attrs: nounwind uwtable
define internal i32 @store_table(ptr noundef %0, ptr noundef %1, ptr noundef %2) #1 {
  %4 = alloca ptr, align 8
  %5 = alloca ptr, align 8
  %6 = alloca ptr, align 8
  %7 = alloca i32, align 4
  %8 = alloca i32, align 4
  %9 = alloca i32, align 4
  %10 = alloca i32, align 4
  %11 = alloca i32, align 4
  store ptr %0, ptr %4, align 8, !tbaa !29
  store ptr %1, ptr %5, align 8, !tbaa !78
  store ptr %2, ptr %6, align 8, !tbaa !78
  call void @llvm.lifetime.start.p0(i64 4, ptr %7) #9
  call void @llvm.lifetime.start.p0(i64 4, ptr %8) #9
  store i32 0, ptr %8, align 4, !tbaa !79
  call void @llvm.lifetime.start.p0(i64 4, ptr %9) #9
  %12 = load ptr, ptr %4, align 8, !tbaa !29
  %13 = getelementptr inbounds nuw %struct.HYuvEncContext, ptr %12, i32 0, i32 10
  %14 = load i32, ptr %13, align 4, !tbaa !61
  store i32 %14, ptr %9, align 4, !tbaa !79
  store i32 0, ptr %7, align 4, !tbaa !79
  br label %15

15:                                               ; preds = %95, %3
  %16 = load i32, ptr %7, align 4, !tbaa !79
  %17 = load i32, ptr %9, align 4, !tbaa !79
  %18 = icmp slt i32 %16, %17
  br i1 %18, label %19, label %96

19:                                               ; preds = %15
  call void @llvm.lifetime.start.p0(i64 4, ptr %10) #9
  %20 = load ptr, ptr %5, align 8, !tbaa !78
  %21 = load i32, ptr %7, align 4, !tbaa !79
  %22 = sext i32 %21 to i64
  %23 = getelementptr inbounds i8, ptr %20, i64 %22
  %24 = load i8, ptr %23, align 1, !tbaa !75
  %25 = zext i8 %24 to i32
  store i32 %25, ptr %10, align 4, !tbaa !79
  call void @llvm.lifetime.start.p0(i64 4, ptr %11) #9
  store i32 0, ptr %11, align 4, !tbaa !79
  br label %26

26:                                               ; preds = %47, %19
  %27 = load i32, ptr %7, align 4, !tbaa !79
  %28 = load i32, ptr %9, align 4, !tbaa !79
  %29 = icmp slt i32 %27, %28
  br i1 %29, label %30, label %42

30:                                               ; preds = %26
  %31 = load ptr, ptr %5, align 8, !tbaa !78
  %32 = load i32, ptr %7, align 4, !tbaa !79
  %33 = sext i32 %32 to i64
  %34 = getelementptr inbounds i8, ptr %31, i64 %33
  %35 = load i8, ptr %34, align 1, !tbaa !75
  %36 = zext i8 %35 to i32
  %37 = load i32, ptr %10, align 4, !tbaa !79
  %38 = icmp eq i32 %36, %37
  br i1 %38, label %39, label %42

39:                                               ; preds = %30
  %40 = load i32, ptr %11, align 4, !tbaa !79
  %41 = icmp slt i32 %40, 255
  br label %42

42:                                               ; preds = %39, %30, %26
  %43 = phi i1 [ false, %30 ], [ false, %26 ], [ %41, %39 ]
  br i1 %43, label %44, label %50

44:                                               ; preds = %42
  %45 = load i32, ptr %11, align 4, !tbaa !79
  %46 = add nsw i32 %45, 1
  store i32 %46, ptr %11, align 4, !tbaa !79
  br label %47

47:                                               ; preds = %44
  %48 = load i32, ptr %7, align 4, !tbaa !79
  %49 = add nsw i32 %48, 1
  store i32 %49, ptr %7, align 4, !tbaa !79
  br label %26, !llvm.loop !120

50:                                               ; preds = %42
  br label %51

51:                                               ; preds = %50
  %52 = load i32, ptr %10, align 4, !tbaa !79
  %53 = icmp slt i32 %52, 32
  br i1 %53, label %54, label %63

54:                                               ; preds = %51
  %55 = load i32, ptr %10, align 4, !tbaa !79
  %56 = icmp sgt i32 %55, 0
  br i1 %56, label %57, label %63

57:                                               ; preds = %54
  %58 = load i32, ptr %11, align 4, !tbaa !79
  %59 = icmp slt i32 %58, 256
  br i1 %59, label %60, label %63

60:                                               ; preds = %57
  %61 = load i32, ptr %11, align 4, !tbaa !79
  %62 = icmp sgt i32 %61, 0
  br i1 %62, label %64, label %63

63:                                               ; preds = %60, %57, %54, %51
  call void (ptr, i32, ptr, ...) @av_log(ptr noundef null, i32 noundef 0, ptr noundef @.str.22, ptr noundef @.str.23, ptr noundef @.str.24, i32 noundef 210)
  call void @abort() #11
  unreachable

64:                                               ; preds = %60
  br label %65

65:                                               ; preds = %64
  br label %66

66:                                               ; preds = %65
  %67 = load i32, ptr %11, align 4, !tbaa !79
  %68 = icmp sgt i32 %67, 7
  br i1 %68, label %69, label %84

69:                                               ; preds = %66
  %70 = load i32, ptr %10, align 4, !tbaa !79
  %71 = trunc i32 %70 to i8
  %72 = load ptr, ptr %6, align 8, !tbaa !78
  %73 = load i32, ptr %8, align 4, !tbaa !79
  %74 = add nsw i32 %73, 1
  store i32 %74, ptr %8, align 4, !tbaa !79
  %75 = sext i32 %73 to i64
  %76 = getelementptr inbounds i8, ptr %72, i64 %75
  store i8 %71, ptr %76, align 1, !tbaa !75
  %77 = load i32, ptr %11, align 4, !tbaa !79
  %78 = trunc i32 %77 to i8
  %79 = load ptr, ptr %6, align 8, !tbaa !78
  %80 = load i32, ptr %8, align 4, !tbaa !79
  %81 = add nsw i32 %80, 1
  store i32 %81, ptr %8, align 4, !tbaa !79
  %82 = sext i32 %80 to i64
  %83 = getelementptr inbounds i8, ptr %79, i64 %82
  store i8 %78, ptr %83, align 1, !tbaa !75
  br label %95

84:                                               ; preds = %66
  %85 = load i32, ptr %10, align 4, !tbaa !79
  %86 = load i32, ptr %11, align 4, !tbaa !79
  %87 = shl i32 %86, 5
  %88 = or i32 %85, %87
  %89 = trunc i32 %88 to i8
  %90 = load ptr, ptr %6, align 8, !tbaa !78
  %91 = load i32, ptr %8, align 4, !tbaa !79
  %92 = add nsw i32 %91, 1
  store i32 %92, ptr %8, align 4, !tbaa !79
  %93 = sext i32 %91 to i64
  %94 = getelementptr inbounds i8, ptr %90, i64 %93
  store i8 %89, ptr %94, align 1, !tbaa !75
  br label %95

95:                                               ; preds = %84, %69
  call void @llvm.lifetime.end.p0(i64 4, ptr %11) #9
  call void @llvm.lifetime.end.p0(i64 4, ptr %10) #9
  br label %15, !llvm.loop !121

96:                                               ; preds = %15
  %97 = load i32, ptr %8, align 4, !tbaa !79
  call void @llvm.lifetime.end.p0(i64 4, ptr %9) #9
  call void @llvm.lifetime.end.p0(i64 4, ptr %8) #9
  call void @llvm.lifetime.end.p0(i64 4, ptr %7) #9
  ret i32 %97
}

; Function Attrs: nounwind uwtable
define internal i32 @store_huffman_tables(ptr noundef %0, ptr noundef %1) #1 {
  %3 = alloca i32, align 4
  %4 = alloca ptr, align 8
  %5 = alloca ptr, align 8
  %6 = alloca i32, align 4
  %7 = alloca i32, align 4
  %8 = alloca i32, align 4
  %9 = alloca i32, align 4
  %10 = alloca i32, align 4
  store ptr %0, ptr %4, align 8, !tbaa !29
  store ptr %1, ptr %5, align 8, !tbaa !78
  call void @llvm.lifetime.start.p0(i64 4, ptr %6) #9
  call void @llvm.lifetime.start.p0(i64 4, ptr %7) #9
  call void @llvm.lifetime.start.p0(i64 4, ptr %8) #9
  store i32 0, ptr %8, align 4, !tbaa !79
  call void @llvm.lifetime.start.p0(i64 4, ptr %9) #9
  store i32 3, ptr %9, align 4, !tbaa !79
  %11 = load ptr, ptr %4, align 8, !tbaa !29
  %12 = getelementptr inbounds nuw %struct.HYuvEncContext, ptr %11, i32 0, i32 7
  %13 = load i32, ptr %12, align 8, !tbaa !42
  %14 = icmp sgt i32 %13, 2
  br i1 %14, label %15, label %25

15:                                               ; preds = %2
  %16 = load ptr, ptr %4, align 8, !tbaa !29
  %17 = getelementptr inbounds nuw %struct.HYuvEncContext, ptr %16, i32 0, i32 11
  %18 = load i32, ptr %17, align 8, !tbaa !53
  %19 = add nsw i32 1, %18
  %20 = load ptr, ptr %4, align 8, !tbaa !29
  %21 = getelementptr inbounds nuw %struct.HYuvEncContext, ptr %20, i32 0, i32 12
  %22 = load i32, ptr %21, align 4, !tbaa !52
  %23 = mul nsw i32 2, %22
  %24 = add nsw i32 %19, %23
  store i32 %24, ptr %9, align 4, !tbaa !79
  br label %25

25:                                               ; preds = %15, %2
  store i32 0, ptr %6, align 4, !tbaa !79
  br label %26

26:                                               ; preds = %86, %25
  %27 = load i32, ptr %6, align 4, !tbaa !79
  %28 = load i32, ptr %9, align 4, !tbaa !79
  %29 = icmp slt i32 %27, %28
  br i1 %29, label %30, label %89

30:                                               ; preds = %26
  %31 = load ptr, ptr %4, align 8, !tbaa !29
  %32 = getelementptr inbounds nuw %struct.HYuvEncContext, ptr %31, i32 0, i32 21
  %33 = load i32, ptr %6, align 4, !tbaa !79
  %34 = sext i32 %33 to i64
  %35 = getelementptr inbounds [4 x [16384 x i8]], ptr %32, i64 0, i64 %34
  %36 = getelementptr inbounds [16384 x i8], ptr %35, i64 0, i64 0
  %37 = load ptr, ptr %4, align 8, !tbaa !29
  %38 = getelementptr inbounds nuw %struct.HYuvEncContext, ptr %37, i32 0, i32 20
  %39 = load i32, ptr %6, align 4, !tbaa !79
  %40 = sext i32 %39 to i64
  %41 = getelementptr inbounds [4 x [16384 x i64]], ptr %38, i64 0, i64 %40
  %42 = getelementptr inbounds [16384 x i64], ptr %41, i64 0, i64 0
  %43 = load ptr, ptr %4, align 8, !tbaa !29
  %44 = getelementptr inbounds nuw %struct.HYuvEncContext, ptr %43, i32 0, i32 10
  %45 = load i32, ptr %44, align 4, !tbaa !61
  %46 = call i32 @ff_huff_gen_len_table(ptr noundef %36, ptr noundef %42, i32 noundef %45, i32 noundef 0)
  store i32 %46, ptr %7, align 4, !tbaa !79
  %47 = icmp slt i32 %46, 0
  br i1 %47, label %48, label %50

48:                                               ; preds = %30
  %49 = load i32, ptr %7, align 4, !tbaa !79
  store i32 %49, ptr %3, align 4
  store i32 1, ptr %10, align 4
  br label %91

50:                                               ; preds = %30
  %51 = load ptr, ptr %4, align 8, !tbaa !29
  %52 = getelementptr inbounds nuw %struct.HYuvEncContext, ptr %51, i32 0, i32 22
  %53 = load i32, ptr %6, align 4, !tbaa !79
  %54 = sext i32 %53 to i64
  %55 = getelementptr inbounds [4 x [16384 x i32]], ptr %52, i64 0, i64 %54
  %56 = getelementptr inbounds [16384 x i32], ptr %55, i64 0, i64 0
  %57 = load ptr, ptr %4, align 8, !tbaa !29
  %58 = getelementptr inbounds nuw %struct.HYuvEncContext, ptr %57, i32 0, i32 21
  %59 = load i32, ptr %6, align 4, !tbaa !79
  %60 = sext i32 %59 to i64
  %61 = getelementptr inbounds [4 x [16384 x i8]], ptr %58, i64 0, i64 %60
  %62 = getelementptr inbounds [16384 x i8], ptr %61, i64 0, i64 0
  %63 = load ptr, ptr %4, align 8, !tbaa !29
  %64 = getelementptr inbounds nuw %struct.HYuvEncContext, ptr %63, i32 0, i32 10
  %65 = load i32, ptr %64, align 4, !tbaa !61
  %66 = call i32 @ff_huffyuv_generate_bits_table(ptr noundef %56, ptr noundef %62, i32 noundef %65)
  store i32 %66, ptr %7, align 4, !tbaa !79
  %67 = load i32, ptr %7, align 4, !tbaa !79
  %68 = icmp slt i32 %67, 0
  br i1 %68, label %69, label %71

69:                                               ; preds = %50
  %70 = load i32, ptr %7, align 4, !tbaa !79
  store i32 %70, ptr %3, align 4
  store i32 1, ptr %10, align 4
  br label %91

71:                                               ; preds = %50
  %72 = load ptr, ptr %4, align 8, !tbaa !29
  %73 = load ptr, ptr %4, align 8, !tbaa !29
  %74 = getelementptr inbounds nuw %struct.HYuvEncContext, ptr %73, i32 0, i32 21
  %75 = load i32, ptr %6, align 4, !tbaa !79
  %76 = sext i32 %75 to i64
  %77 = getelementptr inbounds [4 x [16384 x i8]], ptr %74, i64 0, i64 %76
  %78 = getelementptr inbounds [16384 x i8], ptr %77, i64 0, i64 0
  %79 = load ptr, ptr %5, align 8, !tbaa !78
  %80 = load i32, ptr %8, align 4, !tbaa !79
  %81 = sext i32 %80 to i64
  %82 = getelementptr inbounds i8, ptr %79, i64 %81
  %83 = call i32 @store_table(ptr noundef %72, ptr noundef %78, ptr noundef %82)
  %84 = load i32, ptr %8, align 4, !tbaa !79
  %85 = add nsw i32 %84, %83
  store i32 %85, ptr %8, align 4, !tbaa !79
  br label %86

86:                                               ; preds = %71
  %87 = load i32, ptr %6, align 4, !tbaa !79
  %88 = add nsw i32 %87, 1
  store i32 %88, ptr %6, align 4, !tbaa !79
  br label %26, !llvm.loop !119

89:                                               ; preds = %26
  %90 = load i32, ptr %8, align 4, !tbaa !79
  store i32 %90, ptr %3, align 4
  store i32 1, ptr %10, align 4
  br label %91

91:                                               ; preds = %89, %69, %48
  call void @llvm.lifetime.end.p0(i64 4, ptr %9) #9
  call void @llvm.lifetime.end.p0(i64 4, ptr %8) #9
  call void @llvm.lifetime.end.p0(i64 4, ptr %7) #9
  call void @llvm.lifetime.end.p0(i64 4, ptr %6) #9
  %92 = load i32, ptr %3, align 4
  ret i32 %92
}