; Function Attrs: nounwind uwtable
define internal fastcc i32 @store_huffman_tables(ptr noundef %0, ptr noundef writeonly captures(none) %1) unnamed_addr #1 {
  %3 = getelementptr inbounds nuw i8, ptr %0, i64 64
  %4 = load i32, ptr %3, align 8, !tbaa !39
  %5 = icmp sgt i32 %4, 2
  br i1 %5, label %6, label %.lr.ph

6:                                                ; preds = %2
  %7 = getelementptr inbounds nuw i8, ptr %0, i64 80
  %8 = load i32, ptr %7, align 8, !tbaa !48
  %9 = add nsw i32 %8, 1
  %10 = getelementptr inbounds nuw i8, ptr %0, i64 84
  %11 = load i32, ptr %10, align 4, !tbaa !47
  %12 = shl nsw i32 %11, 1
  %13 = add nsw i32 %9, %12
  %14 = icmp sgt i32 %13, 0
  br i1 %14, label %.lr.ph, label %._crit_edge

.lr.ph:                                           ; preds = %2, %6
  %.043 = phi i32 [ %13, %6 ], [ 3, %2 ]
  %15 = getelementptr inbounds nuw i8, ptr %0, i64 524424
  %16 = getelementptr inbounds nuw i8, ptr %0, i64 136
  %17 = getelementptr inbounds nuw i8, ptr %0, i64 76
  %18 = getelementptr inbounds nuw i8, ptr %0, i64 589960
  %wide.trip.count = zext nneg i32 %.043 to i64
  br label %19

19:                                               ; preds = %.lr.ph, %store_table.exit
  %indvars.iv = phi i64 [ 0, %.lr.ph ], [ %indvars.iv.next, %store_table.exit ]
  %.02634 = phi i32 [ 0, %.lr.ph ], [ %68, %store_table.exit ]
  %20 = getelementptr inbounds nuw [4 x [16384 x i8]], ptr %15, i64 0, i64 %indvars.iv
  %21 = getelementptr inbounds nuw [4 x [16384 x i64]], ptr %16, i64 0, i64 %indvars.iv
  %22 = load i32, ptr %17, align 4, !tbaa !56
  %23 = tail call i32 @ff_huff_gen_len_table(ptr noundef nonnull %20, ptr noundef nonnull %21, i32 noundef %22, i32 noundef 0) #11
  %24 = icmp slt i32 %23, 0
  br i1 %24, label %._crit_edge, label %25

25:                                               ; preds = %19
  %26 = getelementptr inbounds nuw [4 x [16384 x i32]], ptr %18, i64 0, i64 %indvars.iv
  %27 = load i32, ptr %17, align 4, !tbaa !56
  %28 = tail call i32 @ff_huffyuv_generate_bits_table(ptr noundef nonnull %26, ptr noundef nonnull %20, i32 noundef %27) #11
  %29 = icmp slt i32 %28, 0
  br i1 %29, label %._crit_edge, label %30

30:                                               ; preds = %25
  %31 = sext i32 %.02634 to i64
  %32 = getelementptr inbounds i8, ptr %1, i64 %31
  %.val = load i32, ptr %17, align 4, !tbaa !56
  %33 = icmp sgt i32 %.val, 0
  br i1 %33, label %.lr.ph.preheader.i, label %store_table.exit

.lr.ph.preheader.i:                               ; preds = %30
  %34 = zext nneg i32 %.val to i64
  br label %.lr.ph.i

.lr.ph.i:                                         ; preds = %66, %.lr.ph.preheader.i
  %.0355.i = phi i32 [ %.1.lcssa.i, %66 ], [ 0, %.lr.ph.preheader.i ]
  %.0364.i = phi i32 [ %.137.i, %66 ], [ 0, %.lr.ph.preheader.i ]
  %35 = sext i32 %.0355.i to i64
  %36 = getelementptr inbounds i8, ptr %20, i64 %35
  %37 = load i8, ptr %36, align 1, !tbaa !70
  %38 = add nsw i32 %.0355.i, 1
  %smax.i = tail call i32 @llvm.smax.i32(i32 %.val, i32 %38)
  br label %39

39:                                               ; preds = %44, %.lr.ph.i
  %indvars.iv.i = phi i64 [ %35, %.lr.ph.i ], [ %indvars.iv.next.i, %44 ]
  %.03.i = phi i32 [ 0, %.lr.ph.i ], [ %45, %44 ]
  %40 = getelementptr inbounds i8, ptr %20, i64 %indvars.iv.i
  %41 = load i8, ptr %40, align 1, !tbaa !70
  %42 = icmp eq i8 %41, %37
  %43 = icmp samesign ult i32 %.03.i, 255
  %or.cond7.i = select i1 %42, i1 %43, i1 false
  br i1 %or.cond7.i, label %44, label %.critedge.split.loop.exit7.i

44:                                               ; preds = %39
  %45 = add nuw nsw i32 %.03.i, 1
  %indvars.iv.next.i = add nsw i64 %indvars.iv.i, 1
  %46 = icmp slt i64 %indvars.iv.next.i, %34
  br i1 %46, label %39, label %.critedge.i, !llvm.loop !122

.critedge.split.loop.exit7.i:                     ; preds = %39
  %47 = trunc nsw i64 %indvars.iv.i to i32
  br label %.critedge.i

.critedge.i:                                      ; preds = %44, %.critedge.split.loop.exit7.i
  %.1.lcssa.i = phi i32 [ %47, %.critedge.split.loop.exit7.i ], [ %smax.i, %44 ]
  %.0.lcssa.i = phi i32 [ %.03.i, %.critedge.split.loop.exit7.i ], [ %45, %44 ]
  %48 = add i8 %37, -1
  %or.cond.i = icmp ult i8 %48, 31
  %49 = add nsw i32 %.0.lcssa.i, -1
  %50 = icmp ult i32 %49, 255
  %or.cond5.i = select i1 %or.cond.i, i1 %50, i1 false
  br i1 %or.cond5.i, label %52, label %51

51:                                               ; preds = %.critedge.i
  tail call void (ptr, i32, ptr, ...) @av_log(ptr noundef null, i32 noundef 0, ptr noundef nonnull @.str.22, ptr noundef nonnull @.str.23, ptr noundef nonnull @.str.24, i32 noundef 210) #11
  tail call void @abort() #13
  unreachable

52:                                               ; preds = %.critedge.i
  %53 = icmp samesign ugt i32 %.0.lcssa.i, 7
  br i1 %53, label %54, label %60

54:                                               ; preds = %52
  %55 = sext i32 %.0364.i to i64
  %56 = getelementptr inbounds i8, ptr %32, i64 %55
  store i8 %37, ptr %56, align 1, !tbaa !70
  %57 = trunc nuw i32 %.0.lcssa.i to i8
  %58 = add nsw i32 %.0364.i, 2
  %59 = getelementptr i8, ptr %56, i64 1
  store i8 %57, ptr %59, align 1, !tbaa !70
  br label %66

60:                                               ; preds = %52
  %.0.tr.i = trunc nuw nsw i32 %.0.lcssa.i to i8
  %61 = shl nuw i8 %.0.tr.i, 5
  %62 = or disjoint i8 %61, %37
  %63 = add nsw i32 %.0364.i, 1
  %64 = sext i32 %.0364.i to i64
  %65 = getelementptr inbounds i8, ptr %32, i64 %64
  store i8 %62, ptr %65, align 1, !tbaa !70
  br label %66

66:                                               ; preds = %60, %54
  %.137.i = phi i32 [ %58, %54 ], [ %63, %60 ]
  %67 = icmp slt i32 %.1.lcssa.i, %.val
  br i1 %67, label %.lr.ph.i, label %store_table.exit, !llvm.loop !123

store_table.exit:                                 ; preds = %66, %30
  %.036.lcssa.i = phi i32 [ 0, %30 ], [ %.137.i, %66 ]
  %68 = add nsw i32 %.036.lcssa.i, %.02634
  %indvars.iv.next = add nuw nsw i64 %indvars.iv, 1
  %exitcond.not = icmp eq i64 %indvars.iv.next, %wide.trip.count
  br i1 %exitcond.not, label %._crit_edge, label %19, !llvm.loop !124

._crit_edge:                                      ; preds = %19, %25, %store_table.exit, %6
  %.028 = phi i32 [ 0, %6 ], [ %68, %store_table.exit ], [ %28, %25 ], [ %23, %19 ]
  ret i32 %.028
}